(dp0
S'semana4'
p1
(lp2
F1971.9999884968001
aF3227.0832699206717
aF2579.134819985131
aF2689.507804529264
aF2575.7002843171367
aF2631.448556351786
aF1910.3755428071636
asS'semana5'
p3
(lp4
F1879.2234268683267
aF3582.028899369299
aF2091.8415291285255
asS'semana1'
p5
(lp6
F2075.322160974929
aF3837.138117638904
aF2635.712649744407
aF2413.7585936054497
aF2467.7126287611873
aF2343.390062065376
aF1849.6212272543855
asS'semana2'
p7
(lp8
F1873.5110685575255
aF3472.6838479410235
aF2460.865470883059
aF2736.419557092546
aF2811.356888385969
aF2326.4944047860818
aF1767.1480981389602
asS'semana3'
p9
(lp10
F2194.2388089838037
aF3646.40687736735
aF2725.975844070792
aF2748.6773626339514
aF2658.472672223716
aF2341.017799266792
aF1577.8058237284156
as.